; Function Attrs: nounwind uwtable
define ptr @l_Array_forIn_x27Unsafe_loop___at_Lake_LeanExe_recBuildExe___spec__1___boxed(ptr noundef %0, ptr noundef %1, ptr noundef %2, ptr noundef %3, ptr noundef %4, ptr noundef %5, ptr noundef %6, ptr noundef %7, ptr noundef %8, ptr noundef %9, ptr noundef %10, ptr noundef %11, ptr noundef %12) #0 {
  %14 = getelementptr i8, ptr %4, i64 8
  %.val = load i64, ptr %14, align 8, !tbaa !12
  %15 = ptrtoint ptr %4 to i64
  %16 = and i64 %15, 1
  %.not = icmp eq i64 %16, 0
  br i1 %.not, label %17, label %lean_dec.exit23

17:                                               ; preds = %13
  %18 = load i32, ptr %4, align 4, !tbaa !4
  %19 = icmp sgt i32 %18, 1
  br i1 %19, label %20, label %22, !prof !9

20:                                               ; preds = %17
  %21 = add nsw i32 %18, -1
  store i32 %21, ptr %4, align 4, !tbaa !4
  br label %lean_dec.exit23

22:                                               ; preds = %17
  %.not.i = icmp eq i32 %18, 0
  br i1 %.not.i, label %lean_dec.exit23, label %23

23:                                               ; preds = %22
  tail call void @lean_dec_ref_cold(ptr noundef nonnull %4) #6
  br label %lean_dec.exit23

lean_dec.exit23:                                  ; preds = %23, %22, %20, %13
  %24 = getelementptr i8, ptr %5, i64 8
  %.val32 = load i64, ptr %24, align 8, !tbaa !12
  %25 = ptrtoint ptr %5 to i64
  %26 = and i64 %25, 1
  %.not33 = icmp eq i64 %26, 0
  br i1 %.not33, label %27, label %lean_dec.exit22

27:                                               ; preds = %lean_dec.exit23
  %28 = load i32, ptr %5, align 4, !tbaa !4
  %29 = icmp sgt i32 %28, 1
  br i1 %29, label %30, label %32, !prof !9

30:                                               ; preds = %27
  %31 = add nsw i32 %28, -1
  store i32 %31, ptr %5, align 4, !tbaa !4
  br label %lean_dec.exit22

32:                                               ; preds = %27
  %.not.i24 = icmp eq i32 %28, 0
  br i1 %.not.i24, label %lean_dec.exit22, label %33

33:                                               ; preds = %32
  tail call void @lean_dec_ref_cold(ptr noundef nonnull %5) #6
  br label %lean_dec.exit22

lean_dec.exit22:                                  ; preds = %33, %32, %30, %lean_dec.exit23
  %34 = tail call ptr @l_Array_forIn_x27Unsafe_loop___at_Lake_LeanExe_recBuildExe___spec__1(ptr poison, ptr noundef %1, ptr poison, ptr noundef %3, i64 noundef %.val, i64 noundef %.val32, ptr noundef %6, ptr noundef %7, ptr noundef %8, ptr noundef %9, ptr noundef %10, ptr noundef %11, ptr noundef %12)
  %35 = ptrtoint ptr %3 to i64
  %36 = and i64 %35, 1
  %.not34 = icmp eq i64 %36, 0
  br i1 %.not34, label %37, label %lean_dec.exit21

37:                                               ; preds = %lean_dec.exit22
  %38 = load i32, ptr %3, align 4, !tbaa !4
  %39 = icmp sgt i32 %38, 1
  br i1 %39, label %40, label %42, !prof !9

40:                                               ; preds = %37
  %41 = add nsw i32 %38, -1
  store i32 %41, ptr %3, align 4, !tbaa !4
  br label %lean_dec.exit21

42:                                               ; preds = %37
  %.not.i26 = icmp eq i32 %38, 0
  br i1 %.not.i26, label %lean_dec.exit21, label %43

43:                                               ; preds = %42
  tail call void @lean_dec_ref_cold(ptr noundef nonnull %3) #6
  br label %lean_dec.exit21

lean_dec.exit21:                                  ; preds = %43, %42, %40, %lean_dec.exit22
  %44 = ptrtoint ptr %2 to i64
  %45 = and i64 %44, 1
  %.not35 = icmp eq i64 %45, 0
  br i1 %.not35, label %46, label %lean_dec.exit20

46:                                               ; preds = %lean_dec.exit21
  %47 = load i32, ptr %2, align 4, !tbaa !4
  %48 = icmp sgt i32 %47, 1
  br i1 %48, label %49, label %51, !prof !9

49:                                               ; preds = %46
  %50 = add nsw i32 %47, -1
  store i32 %50, ptr %2, align 4, !tbaa !4
  br label %lean_dec.exit20

51:                                               ; preds = %46
  %.not.i28 = icmp eq i32 %47, 0
  br i1 %.not.i28, label %lean_dec.exit20, label %52

52:                                               ; preds = %51
  tail call void @lean_dec_ref_cold(ptr noundef nonnull %2) #6
  br label %lean_dec.exit20

lean_dec.exit20:                                  ; preds = %52, %51, %49, %lean_dec.exit21
  %53 = ptrtoint ptr %0 to i64
  %54 = and i64 %53, 1
  %.not36 = icmp eq i64 %54, 0
  br i1 %.not36, label %55, label %lean_dec.exit

55:                                               ; preds = %lean_dec.exit20
  %56 = load i32, ptr %0, align 4, !tbaa !4
  %57 = icmp sgt i32 %56, 1
  br i1 %57, label %58, label %60, !prof !9

58:                                               ; preds = %55
  %59 = add nsw i32 %56, -1
  store i32 %59, ptr %0, align 4, !tbaa !4
  br label %lean_dec.exit

60:                                               ; preds = %55
  %.not.i30 = icmp eq i32 %56, 0
  br i1 %.not.i30, label %lean_dec.exit, label %61

61:                                               ; preds = %60
  tail call void @lean_dec_ref_cold(ptr noundef nonnull %0) #6
  br label %lean_dec.exit

lean_dec.exit:                                    ; preds = %61, %60, %58, %lean_dec.exit20
  ret ptr %34
}